target datalayout = "e-m:e-p270:32:32-p271:32:32-p272:64:64-i64:64-i128:128-f80:128-n8:16:32:64-S128"
target triple = "x86_64-pc-linux-gnu"

%struct.Dar_Lib_t_ = type { ptr, i32, i32, [222 x i32], [222 x ptr], ptr, i32, ptr, [222 x ptr], ptr, [222 x ptr], ptr, [222 x ptr], [222 x i32], [222 x ptr], ptr, i32, i32, i32, [222 x i32], [222 x ptr], ptr, i32, [222 x i32], [222 x ptr], ptr, i32, ptr, i32, ptr, ptr, ptr, ptr, ptr }
%struct.Dar_LibObj_t_ = type { i64 }

@__const.Dar_LibAlloc.uTruths = private unnamed_addr constant [4 x i32] [i32 43690, i32 52428, i32 61680, i32 65280], align 16

; Function Attrs: nounwind uwtable
define ptr @Dar_LibAlloc(i32 noundef %0) #0 {
  %2 = alloca i32, align 4
  %3 = alloca [4 x i32], align 16
  %4 = alloca ptr, align 8
  %5 = alloca i32, align 4
  store i32 %0, ptr %2, align 4
  call void @llvm.memcpy.p0.p0.i64(ptr align 16 %3, ptr align 16 @__const.Dar_LibAlloc.uTruths, i64 16, i1 false)
  %6 = call noalias ptr @malloc(i64 noundef 16152) #8
  store ptr %6, ptr %4, align 8
  %7 = load ptr, ptr %4, align 8
  call void @llvm.memset.p0.i64(ptr align 8 %7, i8 0, i64 16152, i1 false)
  %8 = load i32, ptr %2, align 4
  %9 = load ptr, ptr %4, align 8
  %10 = getelementptr inbounds %struct.Dar_Lib_t_, ptr %9, i32 0, i32 1
  store i32 %8, ptr %10, align 8
  %11 = load i32, ptr %2, align 4
  %12 = sext i32 %11 to i64
  %13 = mul i64 8, %12
  %14 = call noalias ptr @malloc(i64 noundef %13) #8
  %15 = load ptr, ptr %4, align 8
  %16 = getelementptr inbounds %struct.Dar_Lib_t_, ptr %15, i32 0, i32 0
  store ptr %14, ptr %16, align 8
  %17 = load ptr, ptr %4, align 8
  %18 = getelementptr inbounds %struct.Dar_Lib_t_, ptr %17, i32 0, i32 0
  %19 = load ptr, ptr %18, align 8
  %20 = load i32, ptr %2, align 4
  %21 = sext i32 %20 to i64
  %22 = mul i64 8, %21
  call void @llvm.memset.p0.i64(ptr align 4 %19, i8 0, i64 %22, i1 false)
  %23 = call ptr @Dar_Permutations(i32 noundef 4)
  %24 = load ptr, ptr %4, align 8
  %25 = getelementptr inbounds %struct.Dar_Lib_t_, ptr %24, i32 0, i32 29
  store ptr %23, ptr %25, align 8
  %26 = load ptr, ptr %4, align 8
  %27 = getelementptr inbounds %struct.Dar_Lib_t_, ptr %26, i32 0, i32 30
  %28 = load ptr, ptr %4, align 8
  %29 = getelementptr inbounds %struct.Dar_Lib_t_, ptr %28, i32 0, i32 31
  %30 = load ptr, ptr %4, align 8
  %31 = getelementptr inbounds %struct.Dar_Lib_t_, ptr %30, i32 0, i32 32
  %32 = load ptr, ptr %4, align 8
  %33 = getelementptr inbounds %struct.Dar_Lib_t_, ptr %32, i32 0, i32 33
  call void @Dar_Truth4VarNPN(ptr noundef %27, ptr noundef %29, ptr noundef %31, ptr noundef %33)
  %34 = load ptr, ptr %4, align 8
  %35 = getelementptr inbounds %struct.Dar_Lib_t_, ptr %34, i32 0, i32 2
  store i32 4, ptr %35, align 4
  store i32 0, ptr %5, align 4
  br label %36

36:                                               ; preds = %65, %1
  %37 = load i32, ptr %5, align 4
  %38 = icmp slt i32 %37, 4
  br i1 %38, label %39, label %68

39:                                               ; preds = %36
  %40 = load ptr, ptr %4, align 8
  %41 = getelementptr inbounds %struct.Dar_Lib_t_, ptr %40, i32 0, i32 0
  %42 = load ptr, ptr %41, align 8
  %43 = load i32, ptr %5, align 4
  %44 = sext i32 %43 to i64
  %45 = getelementptr inbounds %struct.Dar_LibObj_t_, ptr %42, i64 %44
  %46 = load i64, ptr %45, align 4
  %47 = and i64 %46, -34359738369
  %48 = or i64 %47, 34359738368
  store i64 %48, ptr %45, align 4
  %49 = load i32, ptr %5, align 4
  %50 = sext i32 %49 to i64
  %51 = getelementptr inbounds [4 x i32], ptr %3, i64 0, i64 %50
  %52 = load i32, ptr %51, align 4
  %53 = load ptr, ptr %4, align 8
  %54 = getelementptr inbounds %struct.Dar_Lib_t_, ptr %53, i32 0, i32 0
  %55 = load ptr, ptr %54, align 8
  %56 = load i32, ptr %5, align 4
  %57 = sext i32 %56 to i64
  %58 = getelementptr inbounds %struct.Dar_LibObj_t_, ptr %55, i64 %57
  %59 = zext i32 %52 to i64
  %60 = load i64, ptr %58, align 4
  %61 = and i64 %59, 268435455
  %62 = shl i64 %61, 36
  %63 = and i64 %60, 68719476735
  %64 = or i64 %63, %62
  store i64 %64, ptr %58, align 4
  br label %65

65:                                               ; preds = %39
  %66 = load i32, ptr %5, align 4
  %67 = add nsw i32 %66, 1
  store i32 %67, ptr %5, align 4
  br label %36, !llvm.loop !4

68:                                               ; preds = %36
  %69 = load ptr, ptr %4, align 8
  ret ptr %69
}