; Function Attrs: nounwind uwtable
define noundef ptr @Dar_LibAlloc(i32 noundef %0) local_unnamed_addr #0 {
  %calloc = tail call dereferenceable_or_null(16152) ptr @calloc(i64 1, i64 16152)
  %2 = getelementptr inbounds nuw i8, ptr %calloc, i64 8
  store i32 %0, ptr %2, align 8
  %3 = sext i32 %0 to i64
  %4 = shl nsw i64 %3, 3
  %calloc22 = tail call ptr @calloc(i64 1, i64 %4)
  store ptr %calloc22, ptr %calloc, align 8
  %5 = tail call ptr @Dar_Permutations(i32 noundef 4) #20
  %6 = getelementptr inbounds nuw i8, ptr %calloc, i64 16112
  store ptr %5, ptr %6, align 8
  %7 = getelementptr inbounds nuw i8, ptr %calloc, i64 16120
  %8 = getelementptr inbounds nuw i8, ptr %calloc, i64 16128
  %9 = getelementptr inbounds nuw i8, ptr %calloc, i64 16136
  %10 = getelementptr inbounds nuw i8, ptr %calloc, i64 16144
  tail call void @Dar_Truth4VarNPN(ptr noundef nonnull %7, ptr noundef nonnull %8, ptr noundef nonnull %9, ptr noundef nonnull %10) #20
  %11 = getelementptr inbounds nuw i8, ptr %calloc, i64 12
  store i32 4, ptr %11, align 4
  br label %12

12:                                               ; preds = %1, %12
  %indvars.iv = phi i64 [ 0, %1 ], [ %indvars.iv.next, %12 ]
  %13 = load ptr, ptr %calloc, align 8
  %14 = getelementptr inbounds nuw %struct.Dar_LibObj_t_, ptr %13, i64 %indvars.iv
  %15 = load i64, ptr %14, align 4
  %16 = or i64 %15, 34359738368
  store i64 %16, ptr %14, align 4
  %17 = getelementptr inbounds nuw [4 x i32], ptr @__const.Dar_LibAlloc.uTruths, i64 0, i64 %indvars.iv
  %18 = load i32, ptr %17, align 4
  %19 = load ptr, ptr %calloc, align 8
  %20 = getelementptr inbounds nuw %struct.Dar_LibObj_t_, ptr %19, i64 %indvars.iv
  %21 = load i64, ptr %20, align 4
  %22 = and i32 %18, 268435455
  %23 = zext nneg i32 %22 to i64
  %24 = shl nuw i64 %23, 36
  %25 = and i64 %21, 68719476735
  %26 = or disjoint i64 %25, %24
  store i64 %26, ptr %20, align 4
  %indvars.iv.next = add nuw nsw i64 %indvars.iv, 1
  %exitcond.not = icmp eq i64 %indvars.iv.next, 4
  br i1 %exitcond.not, label %27, label %12, !llvm.loop !4

27:                                               ; preds = %12
  ret ptr %calloc
}